

Microchip Technology PIC LITE Macro Assembler V1.34 build -361300703 
                                                                                               Thu Apr 14 15:04:52 2016

Microchip Technology Omniscient Code Generator (Lite mode) build 201502162209
     1                           	processor	12F629
     2                           	opt	pw 120
     3                           	opt	lm
     4                           	psect	text0,local,class=CODE,merge=1,delta=2
     5                           	psect	cinit,global,class=CODE,merge=1,delta=2
     6                           	psect	cstackCOMMON,global,class=COMMON,space=1,delta=1
     7                           	psect	cstackBANK0,global,class=BANK0,space=1,delta=1
     8                           	psect	maintext,global,class=CODE,split=1,delta=2
     9                           	psect	text1,local,class=CODE,merge=1,delta=2
    10                           	psect	text2,local,class=CODE,merge=1,delta=2
    11                           	psect	text3,local,class=CODE,merge=1,delta=2
    12                           	dabs	1,0x5E,2
    13  0000                     	;# 
    14  0001                     	;# 
    15  0002                     	;# 
    16  0003                     	;# 
    17  0004                     	;# 
    18  0005                     	;# 
    19  000A                     	;# 
    20  000B                     	;# 
    21  000C                     	;# 
    22  000E                     	;# 
    23  000E                     	;# 
    24  000F                     	;# 
    25  0010                     	;# 
    26  0019                     	;# 
    27  0081                     	;# 
    28  0085                     	;# 
    29  008C                     	;# 
    30  008E                     	;# 
    31  0090                     	;# 
    32  0095                     	;# 
    33  0096                     	;# 
    34  0096                     	;# 
    35  0099                     	;# 
    36  009A                     	;# 
    37  009A                     	;# 
    38  009B                     	;# 
    39  009C                     	;# 
    40  009D                     	;# 
    41  0019                     _CMCON	set	25
    42  0028                     _GP0	set	40
    43  0029                     _GP1	set	41
    44  002A                     _GP2	set	42
    45  002B                     _GP3	set	43
    46  002D                     _GP5	set	45
    47  0428                     _TRISIO0	set	1064
    48  0429                     _TRISIO1	set	1065
    49  042A                     _TRISIO2	set	1066
    50  042B                     _TRISIO3	set	1067
    51  042C                     _TRISIO4	set	1068
    52  042D                     _TRISIO5	set	1069
    53                           
    54                           	psect	text0
    55  0000                     __ptext0:	
    56                           ; #config settings
    57                           
    58                           
    59                           ;psect for function _marcha
    60  0000                     
    61                           	psect	cinit
    62  03FD                     start_initialization:	
    63  03FD                     __initialization:	
    64  03FD                     end_of_initialization:	
    65                           ;End of C runtime variable initialization code
    66                           
    67  03FD                     __end_of__initialization:	
    68  03FD  0183               	clrf	3
    69  03FE  2BA2               	ljmp	_main	;jump to C main() function
    70                           
    71                           	psect	cstackCOMMON
    72  0000                     __pcstackCOMMON:	
    73  0000                     ??_parada:	
    74  0000                     ??_main:	
    75                           ; 0 bytes @ 0x0
    76                           
    77                           
    78                           	psect	cstackBANK0
    79  0020                     __pcstackBANK0:	
    80                           ; 0 bytes @ 0x0
    81                           
    82  0020                     ?_parada:	
    83  0020                     ?_marcha:	
    84                           ; 0 bytes @ 0x0
    85                           
    86  0020                     ??_marcha:	
    87                           ; 0 bytes @ 0x0
    88                           
    89  0020                     ?_parant:	
    90                           ; 0 bytes @ 0x0
    91                           
    92  0020                     ??_parant:	
    93                           ; 0 bytes @ 0x0
    94                           
    95  0020                     ?_main:	
    96                           ; 0 bytes @ 0x0
    97                           
    98                           
    99                           ; 0 bytes @ 0x0
   100  0020                     	ds	3
   101  0023                     parant@i:	
   102                           
   103                           ; 2 bytes @ 0x3
   104  0023                     	ds	2
   105                           
   106                           	psect	maintext
   107  03A2                     __pmaintext:	
   108 ;;
   109 ;;Main: autosize = 0, tempsize = 0, incstack = 0, save=0
   110 ;;
   111 ;; *************** function _main *****************
   112 ;; Defined at:
   113 ;;		line 40 in file "pipower.c"
   114 ;; Parameters:    Size  Location     Type
   115 ;;		None
   116 ;; Auto vars:     Size  Location     Type
   117 ;;		None
   118 ;; Return value:  Size  Location     Type
   119 ;;		None               void
   120 ;; Registers used:
   121 ;;		wreg, status,2, status,0, btemp+1, pclath, cstack
   122 ;; Tracked objects:
   123 ;;		On entry : B00/0
   124 ;;		On exit  : 0/0
   125 ;;		Unchanged: 0/0
   126 ;; Data sizes:     COMMON   BANK0
   127 ;;      Params:         0       0
   128 ;;      Locals:         0       0
   129 ;;      Temps:          0       0
   130 ;;      Totals:         0       0
   131 ;;Total ram usage:        0 bytes
   132 ;; Hardware stack levels required when called:    1
   133 ;; This function calls:
   134 ;;		_marcha
   135 ;;		_parada
   136 ;;		_parant
   137 ;; This function is called by:
   138 ;;		Startup code after reset
   139 ;; This function uses a non-reentrant model
   140 ;;
   141                           
   142                           
   143                           ;psect for function _main
   144  03A2                     _main:	
   145                           
   146                           ;pipower.c: 42: CMCON=0x07;
   147                           
   148                           ;incstack = 0
   149                           ; Regs used in _main: [wreg+status,2+status,0+btemp+1+pclath+cstack]
   150  03A2  3007               	movlw	7
   151  03A3  1283               	bcf	3,5	;RP0=0, select bank0
   152  03A4  0099               	movwf	25	;volatile
   153                           
   154                           ;pipower.c: 43: TRISIO0=0;
   155  03A5  1683               	bsf	3,5	;RP0=1, select bank1
   156  03A6  1005               	bcf	5,0	;volatile
   157                           
   158                           ;pipower.c: 44: TRISIO1=0;
   159  03A7  1085               	bcf	5,1	;volatile
   160                           
   161                           ;pipower.c: 45: TRISIO2=0;
   162  03A8  1105               	bcf	5,2	;volatile
   163                           
   164                           ;pipower.c: 46: TRISIO3=1;
   165  03A9  1585               	bsf	5,3	;volatile
   166                           
   167                           ;pipower.c: 47: TRISIO4=0;
   168  03AA  1205               	bcf	5,4	;volatile
   169                           
   170                           ;pipower.c: 48: TRISIO5=0;
   171  03AB  1285               	bcf	5,5	;volatile
   172  03AC                     l591:	
   173                           ;pipower.c: 50: while (1){
   174                           
   175                           
   176                           ;pipower.c: 51: parada();
   177  03AC  239A               	fcall	_parada
   178                           
   179                           ;pipower.c: 52: marcha();
   180  03AD  23B0               	fcall	_marcha
   181                           
   182                           ;pipower.c: 53: parant();
   183  03AE  23C6               	fcall	_parant
   184  03AF  2BAC               	goto	l591
   185  03B0                     __end_of_main:	
   186                           
   187                           	psect	text1
   188  03C6                     __ptext1:	
   189 ;; *************** function _parant *****************
   190 ;; Defined at:
   191 ;;		line 80 in file "pipower.c"
   192 ;; Parameters:    Size  Location     Type
   193 ;;		None
   194 ;; Auto vars:     Size  Location     Type
   195 ;;  i               2    3[BANK0 ] int 
   196 ;; Return value:  Size  Location     Type
   197 ;;		None               void
   198 ;; Registers used:
   199 ;;		wreg, status,2, btemp+1
   200 ;; Tracked objects:
   201 ;;		On entry : 0/0
   202 ;;		On exit  : 0/0
   203 ;;		Unchanged: 0/0
   204 ;; Data sizes:     COMMON   BANK0
   205 ;;      Params:         0       0
   206 ;;      Locals:         0       2
   207 ;;      Temps:          0       3
   208 ;;      Totals:         0       5
   209 ;;Total ram usage:        5 bytes
   210 ;; Hardware stack levels used:    1
   211 ;; This function calls:
   212 ;;		Nothing
   213 ;; This function is called by:
   214 ;;		_main
   215 ;; This function uses a non-reentrant model
   216 ;;
   217                           
   218                           
   219                           ;psect for function _parant
   220  03C6                     _parant:	
   221                           
   222                           ;pipower.c: 82: GP1=0;
   223                           
   224                           ;incstack = 0
   225                           ; Regs used in _parant: [wreg+status,2+btemp+1]
   226  03C6  1283               	bcf	3,5	;RP0=0, select bank0
   227  03C7  1085               	bcf	5,1	;volatile
   228                           
   229                           ;pipower.c: 83: GP2=1;
   230  03C8  1505               	bsf	5,2	;volatile
   231                           
   232                           ;pipower.c: 84: GP5=1;
   233  03C9  1685               	bsf	5,5	;volatile
   234                           
   235                           ;pipower.c: 85: for (i=0;i<15;i++){
   236  03CA  01A3               	clrf	parant@i
   237  03CB  01A4               	clrf	parant@i+1
   238  03CC                     L1:	
   239  03CC  0824               	movf	parant@i+1,w
   240  03CD  3A80               	xorlw	128
   241  03CE  00DF               	movwf	95
   242  03CF  3080               	movlw	128
   243  03D0  025F               	subwf	95,w
   244  03D1  1D03               	skipz
   245  03D2  2BD5               	goto	u75
   246  03D3  300F               	movlw	15
   247  03D4  0223               	subwf	parant@i,w
   248  03D5                     u75:	
   249  03D5  1803               	btfsc	3,0
   250  03D6  0008               	return
   251                           
   252                           ;pipower.c: 86: _delay((unsigned long)((500)*(8000000/4000.0)));
   253  03D7  3006               	movlw	6
   254  03D8  1283               	bcf	3,5	;RP0=0, select bank0
   255  03D9  00A2               	movwf	??_parant+2
   256  03DA  3013               	movlw	19
   257  03DB  00A1               	movwf	??_parant+1
   258  03DC  30B1               	movlw	177
   259  03DD  00A0               	movwf	??_parant
   260  03DE                     u97:	
   261  03DE  0BA0               	decfsz	??_parant,f
   262  03DF  2BDE               	goto	u97
   263  03E0  0BA1               	decfsz	??_parant+1,f
   264  03E1  2BDE               	goto	u97
   265  03E2  0BA2               	decfsz	??_parant+2,f
   266  03E3  2BDE               	goto	u97
   267  03E4  2BE5               	nop2
   268                           
   269                           ;pipower.c: 87: GP5=0;
   270  03E5  1283               	bcf	3,5	;RP0=0, select bank0
   271  03E6  1285               	bcf	5,5	;volatile
   272                           
   273                           ;pipower.c: 88: _delay((unsigned long)((500)*(8000000/4000.0)));
   274  03E7  3006               	movlw	6
   275  03E8  00A2               	movwf	??_parant+2
   276  03E9  3013               	movlw	19
   277  03EA  00A1               	movwf	??_parant+1
   278  03EB  30B1               	movlw	177
   279  03EC  00A0               	movwf	??_parant
   280  03ED                     u107:	
   281  03ED  0BA0               	decfsz	??_parant,f
   282  03EE  2BED               	goto	u107
   283  03EF  0BA1               	decfsz	??_parant+1,f
   284  03F0  2BED               	goto	u107
   285  03F1  0BA2               	decfsz	??_parant+2,f
   286  03F2  2BED               	goto	u107
   287  03F3  2BF4               	nop2
   288                           
   289                           ;pipower.c: 89: GP5=1;
   290  03F4  1283               	bcf	3,5	;RP0=0, select bank0
   291  03F5  1685               	bsf	5,5	;volatile
   292  03F6  3001               	movlw	1
   293  03F7  07A3               	addwf	parant@i,f
   294  03F8  1803               	skipnc
   295  03F9  0AA4               	incf	parant@i+1,f
   296  03FA  3000               	movlw	0
   297  03FB  07A4               	addwf	parant@i+1,f
   298  03FC  2BCC               	goto	L1
   299  03FD                     __end_of_parant:	
   300                           ;pipower.c: 90: }
   301                           ;pipower.c: 91: return;
   302                           
   303                           
   304                           	psect	text2
   305  039A                     __ptext2:	
   306 ;; *************** function _parada *****************
   307 ;; Defined at:
   308 ;;		line 57 in file "pipower.c"
   309 ;; Parameters:    Size  Location     Type
   310 ;;		None
   311 ;; Auto vars:     Size  Location     Type
   312 ;;		None
   313 ;; Return value:  Size  Location     Type
   314 ;;		None               void
   315 ;; Registers used:
   316 ;;		None
   317 ;; Tracked objects:
   318 ;;		On entry : 0/0
   319 ;;		On exit  : 0/0
   320 ;;		Unchanged: 0/0
   321 ;; Data sizes:     COMMON   BANK0
   322 ;;      Params:         0       0
   323 ;;      Locals:         0       0
   324 ;;      Temps:          0       0
   325 ;;      Totals:         0       0
   326 ;;Total ram usage:        0 bytes
   327 ;; Hardware stack levels used:    1
   328 ;; This function calls:
   329 ;;		Nothing
   330 ;; This function is called by:
   331 ;;		_main
   332 ;; This function uses a non-reentrant model
   333 ;;
   334                           
   335                           
   336                           ;psect for function _parada
   337  039A                     _parada:	
   338  039A                     l41:	
   339                           ;pipower.c: 59: while (GP3==1){
   340                           
   341                           ;incstack = 0
   342                           ; Regs used in _parada: []
   343                           
   344  039A  1283               	bcf	3,5	;RP0=0, select bank0
   345  039B  1D85               	btfss	5,3	;volatile
   346  039C  0008               	return
   347                           
   348                           ;pipower.c: 60: GP0=0;
   349  039D  1005               	bcf	5,0	;volatile
   350                           
   351                           ;pipower.c: 61: GP1=0;
   352  039E  1085               	bcf	5,1	;volatile
   353                           
   354                           ;pipower.c: 62: GP2=0;
   355  039F  1105               	bcf	5,2	;volatile
   356                           
   357                           ;pipower.c: 63: GP5=1;
   358  03A0  1685               	bsf	5,5	;volatile
   359  03A1  2B9A               	goto	l41
   360  03A2                     __end_of_parada:	
   361                           ;pipower.c: 64: }
   362                           ;pipower.c: 65: return;
   363                           
   364                           
   365                           	psect	text3
   366  03B0                     __ptext3:	
   367 ;; *************** function _marcha *****************
   368 ;; Defined at:
   369 ;;		line 67 in file "pipower.c"
   370 ;; Parameters:    Size  Location     Type
   371 ;;		None
   372 ;; Auto vars:     Size  Location     Type
   373 ;;		None
   374 ;; Return value:  Size  Location     Type
   375 ;;		None               void
   376 ;; Registers used:
   377 ;;		wreg
   378 ;; Tracked objects:
   379 ;;		On entry : 0/0
   380 ;;		On exit  : 0/0
   381 ;;		Unchanged: 0/0
   382 ;; Data sizes:     COMMON   BANK0
   383 ;;      Params:         0       0
   384 ;;      Locals:         0       0
   385 ;;      Temps:          0       3
   386 ;;      Totals:         0       3
   387 ;;Total ram usage:        3 bytes
   388 ;; Hardware stack levels used:    1
   389 ;; This function calls:
   390 ;;		Nothing
   391 ;; This function is called by:
   392 ;;		_main
   393 ;; This function uses a non-reentrant model
   394 ;;
   395                           
   396                           
   397                           ;psect for function _marcha
   398  03B0                     _marcha:	
   399                           
   400                           ;pipower.c: 69: GP0=1;
   401                           
   402                           ;incstack = 0
   403                           ; Regs used in _marcha: [wreg]
   404  03B0  1283               	bcf	3,5	;RP0=0, select bank0
   405  03B1  1405               	bsf	5,0	;volatile
   406                           
   407                           ;pipower.c: 70: GP1=1;
   408  03B2  1485               	bsf	5,1	;volatile
   409                           
   410                           ;pipower.c: 71: GP2=0;
   411  03B3  1105               	bcf	5,2	;volatile
   412                           
   413                           ;pipower.c: 72: GP5=0;
   414  03B4  1285               	bcf	5,5	;volatile
   415                           
   416                           ;pipower.c: 73: _delay((unsigned long)((1000)*(8000000/4000.0)));
   417  03B5  300B               	movlw	11
   418  03B6  00A2               	movwf	??_marcha+2
   419  03B7  3026               	movlw	38
   420  03B8  00A1               	movwf	??_marcha+1
   421  03B9  3066               	movlw	102
   422  03BA  00A0               	movwf	??_marcha
   423  03BB                     u117:	
   424  03BB  0BA0               	decfsz	??_marcha,f
   425  03BC  2BBB               	goto	u117
   426  03BD  0BA1               	decfsz	??_marcha+1,f
   427  03BE  2BBB               	goto	u117
   428  03BF  0BA2               	decfsz	??_marcha+2,f
   429  03C0  2BBB               	goto	u117
   430  03C1  2BC2               	nop2
   431  03C2                     l47:	
   432                           ;pipower.c: 74: while (GP3==1){
   433                           
   434  03C2  1283               	bcf	3,5	;RP0=0, select bank0
   435  03C3  1D85               	btfss	5,3	;volatile
   436                           
   437                           ;pipower.c: 76: }
   438                           ;pipower.c: 78: return;
   439  03C4  0008               	return
   440  03C5  2BC2               	goto	l47
   441  03C6                     __end_of_marcha:	
   442  005E                     btemp	set	94	;btemp
   443  005E                     wtemp	set	94
   444  005E                     wtemp0	set	94
   445  0060                     wtemp1	set	96
   446  0062                     wtemp2	set	98
   447  0064                     wtemp3	set	100
   448  0066                     wtemp4	set	102
   449  0068                     wtemp5	set	104
   450  005F                     wtemp6	set	95
   451  005E                     ttemp	set	94
   452  005E                     ttemp0	set	94
   453  0061                     ttemp1	set	97
   454  0064                     ttemp2	set	100
   455  0067                     ttemp3	set	103
   456  005F                     ttemp4	set	95
   457  005E                     ltemp	set	94
   458  005E                     ltemp0	set	94
   459  0062                     ltemp1	set	98
   460  0066                     ltemp2	set	102
   461  0060                     ltemp3	set	96


Data Sizes:
    Strings     0
    Constant    0
    Data        0
    BSS         0
    Persistent  0
    Stack       0

Auto Spaces:
    Space          Size  Autos    Used
    COMMON            0      0       0
    BANK0            62      5       5

Pointer List with Targets:

    None.

Critical Paths under _main in COMMON

    None.

Critical Paths under _main in BANK0

    _main->_parant

Call Graph Tables:

 ---------------------------------------------------------------------------------
 (Depth) Function   	        Calls       Base Space   Used Autos Params    Refs
 ---------------------------------------------------------------------------------
 (0) _main                                                 0     0      0      46
                             _marcha
                             _parada
                             _parant
 ---------------------------------------------------------------------------------
 (1) _parant                                               5     5      0      46
                                              0 BANK0      5     5      0
 ---------------------------------------------------------------------------------
 (1) _parada                                               0     0      0       0
 ---------------------------------------------------------------------------------
 (1) _marcha                                               3     3      0       0
                                              0 BANK0      3     3      0
 ---------------------------------------------------------------------------------
 Estimated maximum stack depth 1
 ---------------------------------------------------------------------------------

 Call Graph Graphs:

 _main (ROOT)
   _marcha
   _parada
   _parant

 Address spaces:
Name               Size   Autos  Total    Cost      Usage
BITCOMMON            0      0       0       0        0.0%
EEDATA              80      0       0       0        0.0%
NULL                 0      0       0       0        0.0%
CODE                 0      0       0       0        0.0%
BITSFR0              0      0       0       1        0.0%
SFR0                 0      0       0       1        0.0%
COMMON               0      0       0       1        0.0%
BITSFR1              0      0       0       2        0.0%
SFR1                 0      0       0       2        0.0%
STACK                0      0       0       2        0.0%
BITBANK0            3E      0       0       3        0.0%
BANK0               3E      5       5       4        8.1%
ABS                  0      0       0       5        0.0%
DATA                 0      0       0       6        0.0%


Microchip Technology PIC Macro Assembler V1.34 build -361300703 
Symbol Table                                                                                   Thu Apr 14 15:04:52 2016

            __CFG_CP$OFF 0000                       l41 039A                       l47 03C2  
                     u75 03D5                       u97 03DE                      l591 03AC  
                    _GP0 0028                      _GP1 0029                      _GP2 002A  
                    _GP3 002B                      _GP5 002D                      u107 03ED  
                    u117 03BB             __CFG_CPD$OFF 0000                     _main 03A2  
                   btemp 005E            __CFG_BOREN$ON 0000                     ltemp 005E  
                   start 0000                     ttemp 005E                     wtemp 005E  
                  ?_main 0020            __CFG_WDTE$OFF 0000                    _CMCON 0019  
                  ltemp0 005E                    ltemp1 0062                    ltemp2 0066  
                  ltemp3 0060                    ttemp0 005E                    ttemp1 0061  
                  ttemp2 0064                    ttemp3 0067                    ttemp4 005F  
                  status 0003                    wtemp0 005E                    wtemp1 0060  
                  wtemp2 0062                    wtemp3 0064                    wtemp4 0066  
                  wtemp5 0068                    wtemp6 005F           __CFG_MCLRE$OFF 0000  
        __initialization 03FD             __end_of_main 03B0                   ??_main 0000  
         __CFG_PWRTE$OFF 0000                   _marcha 03B0                   _parada 039A  
                 _parant 03C6  __end_of__initialization 03FD           __pcstackCOMMON 0000  
             __pmaintext 03A2                  ?_marcha 0020                  ?_parada 0020  
                ?_parant 0020                  _TRISIO0 0428                  _TRISIO1 0429  
                _TRISIO2 042A                  _TRISIO3 042B                  _TRISIO4 042C  
                _TRISIO5 042D          __size_of_marcha 0016          __size_of_parada 0008  
        __size_of_parant 0037                  __ptext0 0000                  __ptext1 03C6  
                __ptext2 039A                  __ptext3 03B0     end_of_initialization 03FD  
                parant@i 0023           __end_of_marcha 03C6           __end_of_parada 03A2  
         __end_of_parant 03FD      start_initialization 03FD                 ??_marcha 0020  
               ??_parada 0000                 ??_parant 0020                ___latbits 0000  
          __pcstackBANK0 0020            __size_of_main 000E        __CFG_FOSC$INTRCIO 0000  
